; Function Attrs: mustprogress nounwind uwtable
define hidden void @_ZN24G1PreConcurrentStartTask19NoteStartOfMarkTask7do_workEj(ptr noundef nonnull align 8 dereferenceable(32) %0, i32 noundef %1) unnamed_addr #0 align 2 {
  %3 = alloca %class.NoteStartOfMarkHRClosure, align 8
  %4 = getelementptr inbounds i8, ptr %3, i64 8
  store i8 1, ptr %4, align 8
  store ptr getelementptr inbounds inrange(-16, 8) (i8, ptr @_ZTV24NoteStartOfMarkHRClosure, i64 16), ptr %3, align 8
  %5 = getelementptr inbounds i8, ptr %3, i64 16
  %6 = load ptr, ptr @_ZN8Universe14_collectedHeapE, align 8
  %7 = getelementptr inbounds i8, ptr %6, i64 1320
  %8 = load ptr, ptr %7, align 8
  store ptr %8, ptr %5, align 8
  %9 = getelementptr inbounds i8, ptr %0, i64 16
  call void @_ZNK15G1CollectedHeap42heap_region_par_iterate_from_worker_offsetEP19G1HeapRegionClosureP19G1HeapRegionClaimerj(ptr noundef nonnull align 8 dereferenceable(1488) %6, ptr noundef nonnull %3, ptr noundef nonnull %9, i32 noundef %1) #22
  ret void
}